target datalayout = "e-m:e-p270:32:32-p271:32:32-p272:64:64-i64:64-i128:128-f80:128-n8:16:32:64-S128"
target triple = "x86_64-pc-linux-gnu"

%"class.pxr::rapidjson::internal::Stack" = type { ptr, ptr, ptr, ptr, ptr, i64 }
%"class.pxr::rapidjson::BasicOStreamWrapper" = type { ptr }
%"class.pxr::rapidjson::Writer" = type <{ ptr, %"class.pxr::rapidjson::internal::Stack", i32, i8, [3 x i8] }>

; Function Attrs: mustprogress uwtable
define linkonce_odr void @_ZN3pxr9rapidjson19BasicOStreamWrapperISoE5FlushEv(ptr noundef nonnull align 8 dereferenceable(8) %0) #4 comdat align 2 {
  %2 = alloca ptr, align 8
  store ptr %0, ptr %2, align 8
  %3 = load ptr, ptr %2, align 8
  %4 = getelementptr inbounds nuw %"class.pxr::rapidjson::BasicOStreamWrapper", ptr %3, i32 0, i32 0
  %5 = load ptr, ptr %4, align 8
  %6 = call noundef nonnull align 8 dereferenceable(8) ptr @_ZNSo5flushEv(ptr noundef nonnull align 8 dereferenceable(8) %5)
  ret void
}

; Function Attrs: mustprogress uwtable
define linkonce_odr void @_ZN3pxr9rapidjson19BasicOStreamWrapperISoE3PutEc(ptr noundef nonnull align 8 dereferenceable(8) %0, i8 noundef signext %1) #4 comdat align 2 {
  %3 = alloca ptr, align 8
  %4 = alloca i8, align 1
  store ptr %0, ptr %3, align 8
  store i8 %1, ptr %4, align 1
  %5 = load ptr, ptr %3, align 8
  %6 = getelementptr inbounds nuw %"class.pxr::rapidjson::BasicOStreamWrapper", ptr %5, i32 0, i32 0
  %7 = load ptr, ptr %6, align 8
  %8 = load i8, ptr %4, align 1
  %9 = call noundef nonnull align 8 dereferenceable(8) ptr @_ZNSo3putEc(ptr noundef nonnull align 8 dereferenceable(8) %7, i8 noundef signext %8)
  ret void
}

; Function Attrs: mustprogress uwtable
define linkonce_odr void @_ZN3pxr9rapidjson6WriterINS0_19BasicOStreamWrapperISoEENS0_4UTF8IcEES5_NS0_12CrtAllocatorELj0EE5FlushEv(ptr noundef nonnull align 8 dereferenceable(61) %0) #4 comdat align 2 {
  %2 = alloca ptr, align 8
  store ptr %0, ptr %2, align 8
  %3 = load ptr, ptr %2, align 8
  %4 = getelementptr inbounds nuw %"class.pxr::rapidjson::Writer", ptr %3, i32 0, i32 0
  %5 = load ptr, ptr %4, align 8
  call void @_ZN3pxr9rapidjson19BasicOStreamWrapperISoE5FlushEv(ptr noundef nonnull align 8 dereferenceable(8) %5)
  ret void
}

; Function Attrs: mustprogress nounwind uwtable
define linkonce_odr noundef zeroext i1 @_ZNK3pxr9rapidjson8internal5StackINS0_12CrtAllocatorEE5EmptyEv(ptr noundef nonnull align 8 dereferenceable(48) %0) #5 comdat align 2 {
  %2 = alloca ptr, align 8
  store ptr %0, ptr %2, align 8
  %3 = load ptr, ptr %2, align 8
  %4 = getelementptr inbounds nuw %"class.pxr::rapidjson::internal::Stack", ptr %3, i32 0, i32 3
  %5 = load ptr, ptr %4, align 8
  %6 = getelementptr inbounds nuw %"class.pxr::rapidjson::internal::Stack", ptr %3, i32 0, i32 2
  %7 = load ptr, ptr %6, align 8
  %8 = icmp eq ptr %5, %7
  ret i1 %8
}

; Function Attrs: mustprogress uwtable
define linkonce_odr void @_ZN3pxr9rapidjson9PutUnsafeINS0_19BasicOStreamWrapperISoEEEEvRT_NS4_2ChE(ptr noundef nonnull align 8 dereferenceable(8) %0, i8 noundef signext %1) #4 comdat {
  %3 = alloca ptr, align 8
  %4 = alloca i8, align 1
  store ptr %0, ptr %3, align 8
  store i8 %1, ptr %4, align 1
  %5 = load ptr, ptr %3, align 8
  %6 = load i8, ptr %4, align 1
  call void @_ZN3pxr9rapidjson19BasicOStreamWrapperISoE3PutEc(ptr noundef nonnull align 8 dereferenceable(8) %5, i8 noundef signext %6)
  ret void
}

; Function Attrs: mustprogress nounwind uwtable
define linkonce_odr void @_ZN3pxr9rapidjson10PutReserveINS0_19BasicOStreamWrapperISoEEEEvRT_m(ptr noundef nonnull align 8 dereferenceable(8) %0, i64 noundef %1) #5 comdat {
  %3 = alloca ptr, align 8
  %4 = alloca i64, align 8
  store ptr %0, ptr %3, align 8
  store i64 %1, ptr %4, align 8
  ret void
}

; Function Attrs: mustprogress uwtable
define linkonce_odr noundef zeroext i1 @_ZN3pxr9rapidjson6WriterINS0_19BasicOStreamWrapperISoEENS0_4UTF8IcEES5_NS0_12CrtAllocatorELj0EE8EndValueEb(ptr noundef nonnull align 8 dereferenceable(61) %0, i1 noundef zeroext %1) #4 comdat align 2 {
  %3 = alloca ptr, align 8
  %4 = alloca i8, align 1
  store ptr %0, ptr %3, align 8
  %5 = zext i1 %1 to i8
  store i8 %5, ptr %4, align 1
  %6 = load ptr, ptr %3, align 8
  %7 = getelementptr inbounds nuw %"class.pxr::rapidjson::Writer", ptr %6, i32 0, i32 1
  %8 = call noundef zeroext i1 @_ZNK3pxr9rapidjson8internal5StackINS0_12CrtAllocatorEE5EmptyEv(ptr noundef nonnull align 8 dereferenceable(48) %7)
  %9 = xor i1 %8, true
  %10 = xor i1 %9, true
  br i1 %10, label %11, label %12

11:                                               ; preds = %2
  call void @_ZN3pxr9rapidjson6WriterINS0_19BasicOStreamWrapperISoEENS0_4UTF8IcEES5_NS0_12CrtAllocatorELj0EE5FlushEv(ptr noundef nonnull align 8 dereferenceable(61) %6)
  br label %12

12:                                               ; preds = %11, %2
  %13 = load i8, ptr %4, align 1
  %14 = trunc i8 %13 to i1
  ret i1 %14
}

; Function Attrs: mustprogress uwtable
define linkonce_odr noundef zeroext i1 @_ZN3pxr9rapidjson6WriterINS0_19BasicOStreamWrapperISoEENS0_4UTF8IcEES5_NS0_12CrtAllocatorELj0EE11WriteUint64Em(ptr noundef nonnull align 8 dereferenceable(61) %0, i64 noundef %1) #4 comdat align 2 {
  %3 = alloca ptr, align 8
  %4 = alloca i64, align 8
  %5 = alloca [20 x i8], align 16
  %6 = alloca ptr, align 8
  %7 = alloca ptr, align 8
  store ptr %0, ptr %3, align 8
  store i64 %1, ptr %4, align 8
  %8 = load ptr, ptr %3, align 8
  %9 = load i64, ptr %4, align 8
  %10 = getelementptr inbounds [20 x i8], ptr %5, i64 0, i64 0
  %11 = call noundef ptr @_ZN3pxr9rapidjson8internal6u64toaEmPc(i64 noundef %9, ptr noundef %10)
  store ptr %11, ptr %6, align 8
  %12 = getelementptr inbounds nuw %"class.pxr::rapidjson::Writer", ptr %8, i32 0, i32 0
  %13 = load ptr, ptr %12, align 8
  %14 = load ptr, ptr %6, align 8
  %15 = getelementptr inbounds [20 x i8], ptr %5, i64 0, i64 0
  %16 = ptrtoint ptr %14 to i64
  %17 = ptrtoint ptr %15 to i64
  %18 = sub i64 %16, %17
  call void @_ZN3pxr9rapidjson10PutReserveINS0_19BasicOStreamWrapperISoEEEEvRT_m(ptr noundef nonnull align 8 dereferenceable(8) %13, i64 noundef %18)
  %19 = getelementptr inbounds [20 x i8], ptr %5, i64 0, i64 0
  store ptr %19, ptr %7, align 8
  br label %20

20:                                               ; preds = %29, %2
  %21 = load ptr, ptr %7, align 8
  %22 = load ptr, ptr %6, align 8
  %23 = icmp ne ptr %21, %22
  br i1 %23, label %24, label %32

24:                                               ; preds = %20
  %25 = getelementptr inbounds nuw %"class.pxr::rapidjson::Writer", ptr %8, i32 0, i32 0
  %26 = load ptr, ptr %25, align 8
  %27 = load ptr, ptr %7, align 8
  %28 = load i8, ptr %27, align 1
  call void @_ZN3pxr9rapidjson9PutUnsafeINS0_19BasicOStreamWrapperISoEEEEvRT_NS4_2ChE(ptr noundef nonnull align 8 dereferenceable(8) %26, i8 noundef signext %28)
  br label %29

29:                                               ; preds = %24
  %30 = load ptr, ptr %7, align 8
  %31 = getelementptr inbounds i8, ptr %30, i32 1
  store ptr %31, ptr %7, align 8
  br label %20, !llvm.loop !15

32:                                               ; preds = %20
  ret i1 true
}

; Function Attrs: mustprogress uwtable
define linkonce_odr noundef zeroext i1 @_ZN3pxr9rapidjson12PrettyWriterINS0_19BasicOStreamWrapperISoEENS0_4UTF8IcEES5_NS0_12CrtAllocatorELj0EE6Uint64Em(ptr noundef nonnull align 8 dereferenceable(72) %0, i64 noundef %1) #4 comdat align 2 {
  %3 = alloca ptr, align 8
  %4 = alloca i64, align 8
  store ptr %0, ptr %3, align 8
  store i64 %1, ptr %4, align 8
  %5 = load ptr, ptr %3, align 8
  call void @_ZN3pxr9rapidjson12PrettyWriterINS0_19BasicOStreamWrapperISoEENS0_4UTF8IcEES5_NS0_12CrtAllocatorELj0EE12PrettyPrefixENS0_4TypeE(ptr noundef nonnull align 8 dereferenceable(72) %5, i32 noundef 6)
  %6 = load i64, ptr %4, align 8
  %7 = call noundef zeroext i1 @_ZN3pxr9rapidjson6WriterINS0_19BasicOStreamWrapperISoEENS0_4UTF8IcEES5_NS0_12CrtAllocatorELj0EE11WriteUint64Em(ptr noundef nonnull align 8 dereferenceable(61) %5, i64 noundef %6)
  %8 = call noundef zeroext i1 @_ZN3pxr9rapidjson6WriterINS0_19BasicOStreamWrapperISoEENS0_4UTF8IcEES5_NS0_12CrtAllocatorELj0EE8EndValueEb(ptr noundef nonnull align 8 dereferenceable(61) %5, i1 noundef zeroext %7)
  ret i1 %8
}

; Function Attrs: mustprogress uwtable
define internal noundef zeroext i1 @_ZN32pxrInternal_v0_24__pxrReserved__12_GLOBAL__N_120Js_PolymorphicWriterIN12_GLOBAL__N_110_WriterFixIN3pxr9rapidjson12PrettyWriterINS5_19BasicOStreamWrapperISoEENS5_4UTF8IcEESA_NS5_12CrtAllocatorELj0EEEEEE6Uint64Em(ptr noundef nonnull align 8 dereferenceable(80) %0, i64 noundef %1) unnamed_addr #4 align 2 {
  %3 = alloca ptr, align 8
  %4 = alloca i64, align 8
  store ptr %0, ptr %3, align 8
  store i64 %1, ptr %4, align 8
  %5 = load ptr, ptr %3, align 8
  %6 = getelementptr inbounds i8, ptr %5, i64 8
  %7 = load i64, ptr %4, align 8
  %8 = call noundef zeroext i1 @_ZN3pxr9rapidjson12PrettyWriterINS0_19BasicOStreamWrapperISoEENS0_4UTF8IcEES5_NS0_12CrtAllocatorELj0EE6Uint64Em(ptr noundef nonnull align 8 dereferenceable(72) %6, i64 noundef %7)
  ret i1 %8
}