; Function Attrs: mustprogress uwtable
define internal noundef zeroext i1 @_ZN32pxrInternal_v0_24__pxrReserved__12_GLOBAL__N_120Js_PolymorphicWriterIN12_GLOBAL__N_110_WriterFixIN3pxr9rapidjson12PrettyWriterINS5_19BasicOStreamWrapperISoEENS5_4UTF8IcEESA_NS5_12CrtAllocatorELj0EEEEEE6Uint64Em(ptr noundef nonnull align 8 dereferenceable(80) %0, i64 noundef %1) unnamed_addr #3 align 2 {
  %3 = alloca [20 x i8], align 16
  %4 = getelementptr inbounds nuw i8, ptr %0, i64 8
  tail call void @_ZN3pxr9rapidjson12PrettyWriterINS0_19BasicOStreamWrapperISoEENS0_4UTF8IcEES5_NS0_12CrtAllocatorELj0EE12PrettyPrefixENS0_4TypeE(ptr noundef nonnull align 8 dereferenceable(72) %4, i32 noundef 6)
  call void @llvm.lifetime.start.p0(i64 20, ptr nonnull %3)
  %5 = call noundef ptr @_ZN3pxr9rapidjson8internal6u64toaEmPc(i64 noundef %1, ptr noundef nonnull %3)
  %.not6.i.i = icmp eq ptr %3, %5
  br i1 %.not6.i.i, label %_ZN3pxr9rapidjson6WriterINS0_19BasicOStreamWrapperISoEENS0_4UTF8IcEES5_NS0_12CrtAllocatorELj0EE11WriteUint64Em.exit.i, label %.lr.ph.i.i

.lr.ph.i.i:                                       ; preds = %2, %.lr.ph.i.i
  %.07.i.i = phi ptr [ %10, %.lr.ph.i.i ], [ %3, %2 ]
  %6 = load ptr, ptr %4, align 8
  %7 = load i8, ptr %.07.i.i, align 1
  %8 = load ptr, ptr %6, align 8
  %9 = call noundef nonnull align 8 dereferenceable(8) ptr @_ZNSo3putEc(ptr noundef nonnull align 8 dereferenceable(8) %8, i8 noundef signext %7)
  %10 = getelementptr inbounds nuw i8, ptr %.07.i.i, i64 1
  %.not.i.i = icmp eq ptr %10, %5
  br i1 %.not.i.i, label %_ZN3pxr9rapidjson6WriterINS0_19BasicOStreamWrapperISoEENS0_4UTF8IcEES5_NS0_12CrtAllocatorELj0EE11WriteUint64Em.exit.i, label %.lr.ph.i.i, !llvm.loop !22

_ZN3pxr9rapidjson6WriterINS0_19BasicOStreamWrapperISoEENS0_4UTF8IcEES5_NS0_12CrtAllocatorELj0EE11WriteUint64Em.exit.i: ; preds = %.lr.ph.i.i, %2
  call void @llvm.lifetime.end.p0(i64 20, ptr nonnull %3)
  %11 = getelementptr inbounds nuw i8, ptr %0, i64 40
  %12 = load ptr, ptr %11, align 8
  %13 = getelementptr inbounds nuw i8, ptr %0, i64 32
  %14 = load ptr, ptr %13, align 8
  %15 = icmp eq ptr %12, %14
  br i1 %15, label %16, label %_ZN3pxr9rapidjson12PrettyWriterINS0_19BasicOStreamWrapperISoEENS0_4UTF8IcEES5_NS0_12CrtAllocatorELj0EE6Uint64Em.exit

16:                                               ; preds = %_ZN3pxr9rapidjson6WriterINS0_19BasicOStreamWrapperISoEENS0_4UTF8IcEES5_NS0_12CrtAllocatorELj0EE11WriteUint64Em.exit.i
  %17 = load ptr, ptr %4, align 8
  %18 = load ptr, ptr %17, align 8
  %19 = call noundef nonnull align 8 dereferenceable(8) ptr @_ZNSo5flushEv(ptr noundef nonnull align 8 dereferenceable(8) %18)
  br label %_ZN3pxr9rapidjson12PrettyWriterINS0_19BasicOStreamWrapperISoEENS0_4UTF8IcEES5_NS0_12CrtAllocatorELj0EE6Uint64Em.exit

_ZN3pxr9rapidjson12PrettyWriterINS0_19BasicOStreamWrapperISoEENS0_4UTF8IcEES5_NS0_12CrtAllocatorELj0EE6Uint64Em.exit: ; preds = %_ZN3pxr9rapidjson6WriterINS0_19BasicOStreamWrapperISoEENS0_4UTF8IcEES5_NS0_12CrtAllocatorELj0EE11WriteUint64Em.exit.i, %16
  ret i1 true
}